target datalayout = "e-m:e-p270:32:32-p271:32:32-p272:64:64-i64:64-i128:128-f80:128-n8:16:32:64-S128"
target triple = "x86_64-pc-linux-gnu"

%struct.VkExtensionProperties = type { [256 x i8], i32 }

@.str.7 = private unnamed_addr constant [24 x i8] c"SDL_RENDER_VULKAN_DEBUG\00", align 1
@.str.8 = private unnamed_addr constant [7 x i8] c"%s: %s\00", align 1
@vkEnumerateInstanceExtensionProperties = internal global ptr null, align 8
@.str.81 = private unnamed_addr constant [41 x i8] c"vkEnumerateInstanceExtensionProperties()\00", align 1

; Function Attrs: nounwind uwtable
define internal zeroext i1 @VULKAN_InstanceExtensionFound(ptr noundef %0, ptr noundef %1) #0 {
  %3 = alloca i1, align 1
  %4 = alloca ptr, align 8
  %5 = alloca ptr, align 8
  %6 = alloca i32, align 4
  %7 = alloca i32, align 4
  %8 = alloca i32, align 4
  %9 = alloca ptr, align 8
  %10 = alloca i32, align 4
  store ptr %0, ptr %4, align 8
  store ptr %1, ptr %5, align 8
  call void @llvm.lifetime.start.p0(i64 4, ptr %6) #6
  call void @llvm.lifetime.start.p0(i64 4, ptr %7) #6
  %11 = load ptr, ptr @vkEnumerateInstanceExtensionProperties, align 8
  %12 = call i32 %11(ptr noundef null, ptr noundef %6, ptr noundef null)
  store i32 %12, ptr %7, align 4
  %13 = load i32, ptr %7, align 4
  %14 = icmp ne i32 %13, 0
  br i1 %14, label %15, label %24

15:                                               ; preds = %2
  %16 = call zeroext i1 @SDL_GetHintBoolean_REAL(ptr noundef @.str.7, i1 noundef zeroext false)
  br i1 %16, label %17, label %20

17:                                               ; preds = %15
  %18 = load i32, ptr %7, align 4
  %19 = call ptr @SDL_Vulkan_GetResultString(i32 noundef %18)
  call void (i32, ptr, ...) @SDL_LogError_REAL(i32 noundef 6, ptr noundef @.str.8, ptr noundef @.str.81, ptr noundef %19)
  call void @llvm.debugtrap()
  br label %20

20:                                               ; preds = %17, %15
  %21 = load i32, ptr %7, align 4
  %22 = call ptr @SDL_Vulkan_GetResultString(i32 noundef %21)
  %23 = call zeroext i1 (ptr, ...) @SDL_SetError_REAL(ptr noundef @.str.8, ptr noundef @.str.81, ptr noundef %22)
  store i1 false, ptr %3, align 1
  store i32 1, ptr %8, align 4
  br label %76

24:                                               ; preds = %2
  %25 = load i32, ptr %6, align 4
  %26 = icmp ugt i32 %25, 0
  br i1 %26, label %27, label %75

27:                                               ; preds = %24
  call void @llvm.lifetime.start.p0(i64 8, ptr %9) #6
  %28 = load i32, ptr %6, align 4
  %29 = zext i32 %28 to i64
  %30 = call noalias ptr @SDL_calloc_REAL(i64 noundef %29, i64 noundef 260) #8
  store ptr %30, ptr %9, align 8
  %31 = load ptr, ptr @vkEnumerateInstanceExtensionProperties, align 8
  %32 = load ptr, ptr %9, align 8
  %33 = call i32 %31(ptr noundef null, ptr noundef %6, ptr noundef %32)
  store i32 %33, ptr %7, align 4
  %34 = load i32, ptr %7, align 4
  %35 = icmp ne i32 %34, 0
  br i1 %35, label %36, label %46

36:                                               ; preds = %27
  %37 = call zeroext i1 @SDL_GetHintBoolean_REAL(ptr noundef @.str.7, i1 noundef zeroext false)
  br i1 %37, label %38, label %41

38:                                               ; preds = %36
  %39 = load i32, ptr %7, align 4
  %40 = call ptr @SDL_Vulkan_GetResultString(i32 noundef %39)
  call void (i32, ptr, ...) @SDL_LogError_REAL(i32 noundef 6, ptr noundef @.str.8, ptr noundef @.str.81, ptr noundef %40)
  call void @llvm.debugtrap()
  br label %41

41:                                               ; preds = %38, %36
  %42 = load i32, ptr %7, align 4
  %43 = call ptr @SDL_Vulkan_GetResultString(i32 noundef %42)
  %44 = call zeroext i1 (ptr, ...) @SDL_SetError_REAL(ptr noundef @.str.8, ptr noundef @.str.81, ptr noundef %43)
  %45 = load ptr, ptr %9, align 8
  call void @SDL_free_REAL(ptr noundef %45)
  store i1 false, ptr %3, align 1
  store i32 1, ptr %8, align 4
  br label %72

46:                                               ; preds = %27
  call void @llvm.lifetime.start.p0(i64 4, ptr %10) #6
  store i32 0, ptr %10, align 4
  br label %47

47:                                               ; preds = %65, %46
  %48 = load i32, ptr %10, align 4
  %49 = load i32, ptr %6, align 4
  %50 = icmp ult i32 %48, %49
  br i1 %50, label %52, label %51

51:                                               ; preds = %47
  store i32 2, ptr %8, align 4
  br label %68

52:                                               ; preds = %47
  %53 = load ptr, ptr %9, align 8
  %54 = load i32, ptr %10, align 4
  %55 = zext i32 %54 to i64
  %56 = getelementptr inbounds nuw %struct.VkExtensionProperties, ptr %53, i64 %55
  %57 = getelementptr inbounds nuw %struct.VkExtensionProperties, ptr %56, i32 0, i32 0
  %58 = getelementptr inbounds [256 x i8], ptr %57, i64 0, i64 0
  %59 = load ptr, ptr %5, align 8
  %60 = call i32 @SDL_strcmp_REAL(ptr noundef %58, ptr noundef %59)
  %61 = icmp eq i32 %60, 0
  br i1 %61, label %62, label %64

62:                                               ; preds = %52
  %63 = load ptr, ptr %9, align 8
  call void @SDL_free_REAL(ptr noundef %63)
  store i1 true, ptr %3, align 1
  store i32 1, ptr %8, align 4
  br label %68

64:                                               ; preds = %52
  br label %65

65:                                               ; preds = %64
  %66 = load i32, ptr %10, align 4
  %67 = add i32 %66, 1
  store i32 %67, ptr %10, align 4
  br label %47, !llvm.loop !39

68:                                               ; preds = %62, %51
  call void @llvm.lifetime.end.p0(i64 4, ptr %10) #6
  %69 = load i32, ptr %8, align 4
  switch i32 %69, label %72 [
    i32 2, label %70
  ]

70:                                               ; preds = %68
  %71 = load ptr, ptr %9, align 8
  call void @SDL_free_REAL(ptr noundef %71)
  store i32 0, ptr %8, align 4
  br label %72

72:                                               ; preds = %70, %68, %41
  call void @llvm.lifetime.end.p0(i64 8, ptr %9) #6
  %73 = load i32, ptr %8, align 4
  switch i32 %73, label %76 [
    i32 0, label %74
  ]

74:                                               ; preds = %72
  br label %75

75:                                               ; preds = %74, %24
  store i1 false, ptr %3, align 1
  store i32 1, ptr %8, align 4
  br label %76

76:                                               ; preds = %75, %72, %20
  call void @llvm.lifetime.end.p0(i64 4, ptr %7) #6
  call void @llvm.lifetime.end.p0(i64 4, ptr %6) #6
  %77 = load i1, ptr %3, align 1
  ret i1 %77
}