; Function Attrs: nounwind uwtable
define internal fastcc noundef zeroext i1 @VULKAN_InstanceExtensionFound(ptr noundef %0) unnamed_addr #0 {
  %2 = alloca i32, align 4
  call void @llvm.lifetime.start.p0(i64 4, ptr nonnull %2) #8
  %3 = load ptr, ptr @vkEnumerateInstanceExtensionProperties, align 8
  %4 = call i32 %3(ptr noundef null, ptr noundef nonnull %2, ptr noundef null) #8
  %.not = icmp eq i32 %4, 0
  br i1 %.not, label %12, label %5

5:                                                ; preds = %1
  %6 = call zeroext i1 @SDL_GetHintBoolean_REAL(ptr noundef nonnull @.str.7, i1 noundef zeroext false) #8
  br i1 %6, label %7, label %9

7:                                                ; preds = %5
  %8 = call ptr @SDL_Vulkan_GetResultString(i32 noundef %4) #8
  call void (i32, ptr, ...) @SDL_LogError_REAL(i32 noundef 6, ptr noundef nonnull @.str.8, ptr noundef nonnull @.str.81, ptr noundef %8) #8
  call void @llvm.debugtrap()
  br label %9

9:                                                ; preds = %7, %5
  %10 = call ptr @SDL_Vulkan_GetResultString(i32 noundef %4) #8
  %11 = call zeroext i1 (ptr, ...) @SDL_SetError_REAL(ptr noundef nonnull @.str.8, ptr noundef nonnull @.str.81, ptr noundef %10) #8
  br label %.critedge28

12:                                               ; preds = %1
  %13 = load i32, ptr %2, align 4
  %.not24 = icmp eq i32 %13, 0
  br i1 %.not24, label %.critedge28, label %14

14:                                               ; preds = %12
  %15 = zext i32 %13 to i64
  %16 = call noalias ptr @SDL_calloc_REAL(i64 noundef %15, i64 noundef 260) #11
  %17 = load ptr, ptr @vkEnumerateInstanceExtensionProperties, align 8
  %18 = call i32 %17(ptr noundef null, ptr noundef nonnull %2, ptr noundef %16) #8
  %.not25 = icmp eq i32 %18, 0
  br i1 %.not25, label %.preheader, label %20

.preheader:                                       ; preds = %14
  %19 = load i32, ptr %2, align 4
  %.not261.not = icmp eq i32 %19, 0
  br i1 %.not261.not, label %.critedge, label %.lr.ph

20:                                               ; preds = %14
  %21 = call zeroext i1 @SDL_GetHintBoolean_REAL(ptr noundef nonnull @.str.7, i1 noundef zeroext false) #8
  br i1 %21, label %22, label %24

22:                                               ; preds = %20
  %23 = call ptr @SDL_Vulkan_GetResultString(i32 noundef %18) #8
  call void (i32, ptr, ...) @SDL_LogError_REAL(i32 noundef 6, ptr noundef nonnull @.str.8, ptr noundef nonnull @.str.81, ptr noundef %23) #8
  call void @llvm.debugtrap()
  br label %24

24:                                               ; preds = %22, %20
  %25 = call ptr @SDL_Vulkan_GetResultString(i32 noundef %18) #8
  %26 = call zeroext i1 (ptr, ...) @SDL_SetError_REAL(ptr noundef nonnull @.str.8, ptr noundef nonnull @.str.81, ptr noundef %25) #8
  call void @SDL_free_REAL(ptr noundef %16) #8
  br label %.critedge28

27:                                               ; preds = %.lr.ph
  %indvars.iv.next = add nuw nsw i64 %indvars.iv, 1
  %28 = load i32, ptr %2, align 4
  %29 = zext i32 %28 to i64
  %.not26 = icmp samesign ult i64 %indvars.iv.next, %29
  br i1 %.not26, label %.lr.ph, label %.critedge, !llvm.loop !60

.lr.ph:                                           ; preds = %.preheader, %27
  %indvars.iv = phi i64 [ %indvars.iv.next, %27 ], [ 0, %.preheader ]
  %30 = getelementptr inbounds nuw %struct.VkExtensionProperties, ptr %16, i64 %indvars.iv
  %31 = call i32 @SDL_strcmp_REAL(ptr noundef %30, ptr noundef %0) #8
  %32 = icmp eq i32 %31, 0
  br i1 %32, label %33, label %27

33:                                               ; preds = %.lr.ph
  call void @SDL_free_REAL(ptr noundef %16) #8
  br label %.critedge28

.critedge:                                        ; preds = %27, %.preheader
  call void @SDL_free_REAL(ptr noundef %16) #8
  br label %.critedge28

.critedge28:                                      ; preds = %33, %24, %12, %.critedge, %9
  %.018 = phi i1 [ false, %9 ], [ false, %.critedge ], [ false, %12 ], [ true, %33 ], [ false, %24 ]
  call void @llvm.lifetime.end.p0(i64 4, ptr nonnull %2) #8
  ret i1 %.018
}